target datalayout = "e-m:e-p270:32:32-p271:32:32-p272:64:64-i64:64-i128:128-f80:128-n8:16:32:64-S128"
target triple = "x86_64-pc-linux-gnu"

@.str = private unnamed_addr constant [11 x i8] c"%s: malloc\00", align 1
@__func__.evtag_unmarshal_string = private unnamed_addr constant [23 x i8] c"evtag_unmarshal_string\00", align 1

; Function Attrs: nounwind uwtable
define i32 @evtag_unmarshal_string(ptr noundef %0, i32 noundef %1, ptr noundef %2) #0 {
  %4 = alloca i32, align 4
  %5 = alloca ptr, align 8
  %6 = alloca i32, align 4
  %7 = alloca ptr, align 8
  %8 = alloca i32, align 4
  %9 = alloca i32, align 4
  %10 = alloca i32, align 4
  store ptr %0, ptr %5, align 8
  store i32 %1, ptr %6, align 4
  store ptr %2, ptr %7, align 8
  call void @llvm.lifetime.start.p0(i64 4, ptr %8) #6
  call void @llvm.lifetime.start.p0(i64 4, ptr %9) #6
  %11 = load ptr, ptr %5, align 8
  %12 = call i32 @evtag_unmarshal_header(ptr noundef %11, ptr noundef %8)
  store i32 %12, ptr %9, align 4
  %13 = icmp eq i32 %12, -1
  br i1 %13, label %18, label %14

14:                                               ; preds = %3
  %15 = load i32, ptr %8, align 4
  %16 = load i32, ptr %6, align 4
  %17 = icmp ne i32 %15, %16
  br i1 %17, label %18, label %19

18:                                               ; preds = %14, %3
  store i32 -1, ptr %4, align 4
  store i32 1, ptr %10, align 4
  br label %41

19:                                               ; preds = %14
  %20 = load i32, ptr %9, align 4
  %21 = add nsw i32 %20, 1
  %22 = sext i32 %21 to i64
  %23 = call ptr @event_mm_malloc_(i64 noundef %22)
  %24 = load ptr, ptr %7, align 8
  store ptr %23, ptr %24, align 8
  %25 = load ptr, ptr %7, align 8
  %26 = load ptr, ptr %25, align 8
  %27 = icmp eq ptr %26, null
  br i1 %27, label %28, label %29

28:                                               ; preds = %19
  call void (ptr, ...) @event_warn(ptr noundef @.str, ptr noundef @__func__.evtag_unmarshal_string)
  store i32 -1, ptr %4, align 4
  store i32 1, ptr %10, align 4
  br label %41

29:                                               ; preds = %19
  %30 = load ptr, ptr %5, align 8
  %31 = load ptr, ptr %7, align 8
  %32 = load ptr, ptr %31, align 8
  %33 = load i32, ptr %9, align 4
  %34 = sext i32 %33 to i64
  %35 = call i32 @evbuffer_remove(ptr noundef %30, ptr noundef %32, i64 noundef %34)
  %36 = load ptr, ptr %7, align 8
  %37 = load ptr, ptr %36, align 8
  %38 = load i32, ptr %9, align 4
  %39 = sext i32 %38 to i64
  %40 = getelementptr inbounds i8, ptr %37, i64 %39
  store i8 0, ptr %40, align 1
  store i32 0, ptr %4, align 4
  store i32 1, ptr %10, align 4
  br label %41

41:                                               ; preds = %29, %28, %18
  call void @llvm.lifetime.end.p0(i64 4, ptr %9) #6
  call void @llvm.lifetime.end.p0(i64 4, ptr %8) #6
  %42 = load i32, ptr %4, align 4
  ret i32 %42
}