; Function Attrs: nounwind uwtable
define range(i32 -1, 1) i32 @evtag_unmarshal_string(ptr noundef %0, i32 noundef %1, ptr noundef captures(none) %2) local_unnamed_addr #1 {
  %4 = alloca i32, align 4
  call void @llvm.lifetime.start.p0(i64 4, ptr nonnull %4) #7
  %5 = call i32 @evtag_unmarshal_header(ptr noundef %0, ptr noundef nonnull %4)
  %6 = icmp ne i32 %5, -1
  %7 = load i32, ptr %4, align 4
  %.not = icmp eq i32 %7, %1
  %or.cond = select i1 %6, i1 %.not, i1 false
  br i1 %or.cond, label %8, label %19

8:                                                ; preds = %3
  %9 = add nuw nsw i32 %5, 1
  %10 = sext i32 %9 to i64
  %11 = call ptr @event_mm_malloc_(i64 noundef %10) #7
  store ptr %11, ptr %2, align 8
  %12 = icmp eq ptr %11, null
  br i1 %12, label %13, label %14

13:                                               ; preds = %8
  call void (ptr, ...) @event_warn(ptr noundef nonnull @.str, ptr noundef nonnull @__func__.evtag_unmarshal_string) #7
  br label %19

14:                                               ; preds = %8
  %15 = sext i32 %5 to i64
  %16 = call i32 @evbuffer_remove(ptr noundef %0, ptr noundef nonnull %11, i64 noundef %15) #7
  %17 = load ptr, ptr %2, align 8
  %18 = getelementptr inbounds i8, ptr %17, i64 %15
  store i8 0, ptr %18, align 1
  br label %19

19:                                               ; preds = %3, %14, %13
  %.0 = phi i32 [ -1, %13 ], [ 0, %14 ], [ -1, %3 ]
  call void @llvm.lifetime.end.p0(i64 4, ptr nonnull %4) #7
  ret i32 %.0
}